(dp0
I0
ccopy_reg
_reconstructor
p1
(cmeeplib
Message
p2
c__builtin__
object
p3
Ntp4
Rp5
(dp6
S'post'
p7
S'This is my message!'
p8
sS'author'
p9
g1
(cmeeplib
User
p10
g3
Ntp11
Rp12
(dp13
S'username'
p14
S'test'
p15
sS'password'
p16
g15
sS'id'
p17
I0
sbsg17
I0
sS'title'
p18
S'my title'
p19
sbsI1
g1
(g2
g3
Ntp20
Rp21
(dp22
g7
S'Test message body 2'
p23
sg9
g1
(g10
g3
Ntp24
Rp25
(dp26
g14
S'test'
p27
sg16
g27
sg17
I0
sbsg17
I1
sg18
S'Test message title 2'
p28
sbsI2
g1
(g2
g3
Ntp29
Rp30
(dp31
g7
S'New message body bro'
p32
sg9
g25
sg17
I2
sg18
S'New message title bro'
p33
sbsI3
g1
(g2
g3
Ntp34
Rp35
(dp36
g7
S'Test message body 2'
p37
sg9
g25
sg17
I3
sg18
S'Test message title 2'
p38
sbsI4
g1
(g2
g3
Ntp39
Rp40
(dp41
g7
S'Test message body'
p42
sg9
g25
sg17
I4
sg18
S'Test message title'
p43
sbsI5
g1
(g2
g3
Ntp44
Rp45
(dp46
g7
S'Test message body 3'
p47
sg9
g25
sg17
I5
sg18
S'Test message title 3'
p48
sbs.