(dp0
I1
ccopy_reg
_reconstructor
p1
(cmeeplib
Message
p2
c__builtin__
object
p3
Ntp4
Rp5
(dp6
S'post'
p7
S'Yo yo yo'
p8
sS'author'
p9
g1
(cmeeplib
User
p10
g3
Ntp11
Rp12
(dp13
S'username'
p14
S'test'
p15
sS'password'
p16
g15
sS'id'
p17
I0
sbsg17
I1
sS'title'
p18
S'Angela Rocks'
p19
sbsI2
g1
(g2
g3
Ntp20
Rp21
(dp22
g7
S'Reply test message'
p23
sg9
g1
(g10
g3
Ntp24
Rp25
(dp26
g14
S'test'
p27
sg16
g27
sg17
I0
sbsg17
I2
sg18
S'RE: Reply Test Title'
p28
sbsI3
g1
(g2
g3
Ntp29
Rp30
(dp31
g7
S'Functional test message'
p32
sg9
g25
sg17
I3
sg18
S'Functional Test Title'
p33
sbs.