((dp0
S'test'
p1
ccopy_reg
_reconstructor
p2
(cmeeplib
User
p3
c__builtin__
object
p4
Ntp5
Rp6
(dp7
S'username'
p8
g1
sS'password'
p9
S'foo'
p10
sS'id'
p11
I0
sbs(dp12
I0
g6
s(dp13
I0
g2
(cmeeplib
Topic
p14
g4
Ntp15
Rp16
(dp17
S'author'
p18
g6
sS'messages'
p19
(dp20
I0
g2
(cmeeplib
Message
p21
g4
Ntp22
Rp23
(dp24
S'post'
p25
S'This is my message!'
p26
sg18
g6
sg11
I0
sS'title'
p27
S'my title'
p28
sbsI1
g2
(g21
g4
Ntp29
Rp30
(dp31
g25
S'asdf'
p32
sg18
g6
sg11
I1
sg27
S'asdf'
p33
sbssg11
I0
sg27
S'First Topic'
p34
sbs(dp35
I0
g23
sI1
g30
stp36
.