(dp0
I0
ccopy_reg
_reconstructor
p1
(cmeeplib
Topic
p2
c__builtin__
object
p3
Ntp4
Rp5
(dp6
S'author'
p7
g1
(cmeeplib
User
p8
g3
Ntp9
Rp10
(dp11
S'username'
p12
S'test'
p13
sS'password'
p14
g13
sS'id'
p15
I0
sbsS'messages'
p16
(dp17
I0
g1
(cmeeplib
Message
p18
g3
Ntp19
Rp20
(dp21
S'post'
p22
S'This is my message!'
p23
sg7
g10
sg15
I0
sS'title'
p24
S'my title'
p25
sbssg15
I0
sg24
S'First Topic'
p26
sbsI1
g1
(g2
g3
Ntp27
Rp28
(dp29
g7
g1
(g8
g3
Ntp30
Rp31
(dp32
g12
S'test'
p33
sg14
g33
sg15
I0
sbsg16
(dp34
I1
g1
(g18
g3
Ntp35
Rp36
(dp37
g22
S'Test message body 2'
p38
sg7
g31
sg15
I1
sg24
S'Test message title 2'
p39
sbsI2
g1
(g18
g3
Ntp40
Rp41
(dp42
g22
S'New message body bro'
p43
sg7
g31
sg15
I2
sg24
S'New message title bro'
p44
sbssg15
I1
sg24
S'Testing add message - topic title 2'
p45
sbsI2
g1
(g2
g3
Ntp46
Rp47
(dp48
g7
g31
sg16
(dp49
I3
g1
(g18
g3
Ntp50
Rp51
(dp52
g22
S'Test message body 2'
p53
sg7
g31
sg15
I3
sg24
S'Test message title 2'
p54
sbssg15
I2
sg24
S'Testing add message - topic title 2'
p55
sbsI3
g1
(g2
g3
Ntp56
Rp57
(dp58
g7
g31
sg16
(dp59
I4
g1
(g18
g3
Ntp60
Rp61
(dp62
g22
S'Test message body'
p63
sg7
g31
sg15
I4
sg24
S'Test message title'
p64
sbssg15
I3
sg24
S'Testing add topic - topic title'
p65
sbsI4
g1
(g2
g3
Ntp66
Rp67
(dp68
g7
g31
sg16
(dp69
sg15
I4
sg24
S'Testing delete message - topic title 4'
p70
sbs.