(dp0
S'test'
p1
ccopy_reg
_reconstructor
p2
(cmeeplib
User
p3
c__builtin__
object
p4
Ntp5
Rp6
(dp7
S'username'
p8
g1
sS'password'
p9
g1
sS'id'
p10
I0
sbsS'Ftest'
p11
g2
(g3
g4
Ntp12
Rp13
(dp14
g8
g11
sg9
S'Ftest'
p15
sg10
I2
sbsS'angela'
p16
g2
(g3
g4
Ntp17
Rp18
(dp19
g8
g16
sg9
S'angela'
p20
sg10
I1
sbs.(dp0
I0
ccopy_reg
_reconstructor
p1
(cmeeplib
User
p2
c__builtin__
object
p3
Ntp4
Rp5
(dp6
S'username'
p7
S'test'
p8
sS'password'
p9
g8
sS'id'
p10
I0
sbsI1
g1
(g2
g3
Ntp11
Rp12
(dp13
g7
S'angela'
p14
sg9
S'angela'
p15
sg10
I1
sbsI2
g1
(g2
g3
Ntp16
Rp17
(dp18
g7
S'Ftest'
p19
sg9
S'Ftest'
p20
sg10
I2
sbs.